target datalayout = "e-m:e-p270:32:32-p271:32:32-p272:64:64-i64:64-i128:128-f80:128-n8:16:32:64-S128"
target triple = "x86_64-pc-linux-gnu"

%class.VerificationType = type { %union.anon }
%union.anon = type { ptr }
%class.StackMapFrame = type { i32, i32, i32, i32, i16, i16, i8, ptr, ptr, ptr }
%class.ErrorContext = type { i32, i32, %class.TypeOrigin, %class.TypeOrigin }
%class.TypeOrigin = type { i32, i32, ptr, %class.VerificationType }
%class.ThreadShadow = type <{ ptr, ptr, ptr, i32, [4 x i8] }>

@.str.6 = private unnamed_addr constant [30 x i8] c"Local variable table overflow\00", align 1
@.str.7 = private unnamed_addr constant [24 x i8] c"Bad local variable type\00", align 1

; Function Attrs: mustprogress nounwind uwtable
define linkonce_odr hidden void @_ZN16VerificationTypeC2Ev(ptr noundef nonnull align 8 dereferenceable(8) %0) unnamed_addr #1 comdat align 2 {
  %2 = alloca ptr, align 8
  %3 = alloca %class.VerificationType, align 8
  store ptr %0, ptr %2, align 8
  %4 = load ptr, ptr %2, align 8
  %5 = call ptr @_ZN16VerificationType10bogus_typeEv()
  %6 = getelementptr inbounds %class.VerificationType, ptr %3, i32 0, i32 0
  %7 = getelementptr inbounds %union.anon, ptr %6, i32 0, i32 0
  store ptr %5, ptr %7, align 8
  call void @llvm.memcpy.p0.p0.i64(ptr align 8 %4, ptr align 8 %3, i64 8, i1 false)
  ret void
}

; Function Attrs: mustprogress nounwind uwtable
define linkonce_odr hidden void @_ZN10TypeOriginC2Ev(ptr noundef nonnull align 8 dereferenceable(24) %0) unnamed_addr #1 comdat align 2 {
  %2 = alloca ptr, align 8
  store ptr %0, ptr %2, align 8
  %3 = load ptr, ptr %2, align 8
  %4 = getelementptr inbounds %class.TypeOrigin, ptr %3, i32 0, i32 0
  store i32 9, ptr %4, align 8
  %5 = getelementptr inbounds %class.TypeOrigin, ptr %3, i32 0, i32 1
  store i32 0, ptr %5, align 4
  %6 = getelementptr inbounds %class.TypeOrigin, ptr %3, i32 0, i32 2
  store ptr null, ptr %6, align 8
  %7 = getelementptr inbounds %class.TypeOrigin, ptr %3, i32 0, i32 3
  call void @_ZN16VerificationTypeC2Ev(ptr noundef nonnull align 8 dereferenceable(8) %7)
  ret void
}

; Function Attrs: mustprogress nounwind uwtable
define linkonce_odr hidden void @_ZN12ErrorContextC2EiNS_9FaultTypeE10TypeOriginS1_(ptr noundef nonnull align 8 dereferenceable(56) %0, i32 noundef %1, i32 noundef %2, ptr noundef byval(%class.TypeOrigin) align 8 %3, ptr noundef byval(%class.TypeOrigin) align 8 %4) unnamed_addr #1 comdat align 2 {
  %6 = alloca ptr, align 8
  %7 = alloca i32, align 4
  %8 = alloca i32, align 4
  store ptr %0, ptr %6, align 8
  store i32 %1, ptr %7, align 4
  store i32 %2, ptr %8, align 4
  %9 = load ptr, ptr %6, align 8
  %10 = getelementptr inbounds %class.ErrorContext, ptr %9, i32 0, i32 0
  %11 = load i32, ptr %7, align 4
  store i32 %11, ptr %10, align 8
  %12 = getelementptr inbounds %class.ErrorContext, ptr %9, i32 0, i32 1
  %13 = load i32, ptr %8, align 4
  store i32 %13, ptr %12, align 4
  %14 = getelementptr inbounds %class.ErrorContext, ptr %9, i32 0, i32 2
  call void @llvm.memcpy.p0.p0.i64(ptr align 8 %14, ptr align 8 %3, i64 24, i1 false)
  %15 = getelementptr inbounds %class.ErrorContext, ptr %9, i32 0, i32 3
  call void @llvm.memcpy.p0.p0.i64(ptr align 8 %15, ptr align 8 %4, i64 24, i1 false)
  ret void
}

; Function Attrs: mustprogress nounwind uwtable
define linkonce_odr hidden void @_ZN16VerificationTypeC2Em(ptr noundef nonnull align 8 dereferenceable(8) %0, i64 noundef %1) unnamed_addr #1 comdat align 2 {
  %3 = alloca ptr, align 8
  %4 = alloca i64, align 8
  store ptr %0, ptr %3, align 8
  store i64 %1, ptr %4, align 8
  %5 = load ptr, ptr %3, align 8
  %6 = load i64, ptr %4, align 8
  %7 = getelementptr inbounds %class.VerificationType, ptr %5, i32 0, i32 0
  store i64 %6, ptr %7, align 8
  ret void
}

; Function Attrs: mustprogress nounwind uwtable
define linkonce_odr hidden void @_ZN12ErrorContextC2EiNS_9FaultTypeE10TypeOrigin(ptr noundef nonnull align 8 dereferenceable(56) %0, i32 noundef %1, i32 noundef %2, ptr noundef byval(%class.TypeOrigin) align 8 %3) unnamed_addr #1 comdat align 2 {
  %5 = alloca ptr, align 8
  %6 = alloca i32, align 4
  %7 = alloca i32, align 4
  store ptr %0, ptr %5, align 8
  store i32 %1, ptr %6, align 4
  store i32 %2, ptr %7, align 4
  %8 = load ptr, ptr %5, align 8
  %9 = getelementptr inbounds %class.ErrorContext, ptr %8, i32 0, i32 0
  %10 = load i32, ptr %6, align 4
  store i32 %10, ptr %9, align 8
  %11 = getelementptr inbounds %class.ErrorContext, ptr %8, i32 0, i32 1
  %12 = load i32, ptr %7, align 4
  store i32 %12, ptr %11, align 4
  %13 = getelementptr inbounds %class.ErrorContext, ptr %8, i32 0, i32 2
  call void @llvm.memcpy.p0.p0.i64(ptr align 8 %13, ptr align 8 %3, i64 24, i1 false)
  %14 = getelementptr inbounds %class.ErrorContext, ptr %8, i32 0, i32 3
  call void @_ZN10TypeOriginC2Ev(ptr noundef nonnull align 8 dereferenceable(24) %14)
  ret void
}

; Function Attrs: mustprogress nounwind uwtable
define linkonce_odr hidden void @_ZN12ErrorContext8bad_typeEi10TypeOriginS0_(ptr dead_on_unwind noalias writable sret(%class.ErrorContext) align 8 %0, i32 noundef %1, ptr noundef byval(%class.TypeOrigin) align 8 %2, ptr noundef byval(%class.TypeOrigin) align 8 %3) #1 comdat align 2 {
  %5 = alloca i32, align 4
  %6 = alloca %class.TypeOrigin, align 8
  %7 = alloca %class.TypeOrigin, align 8
  store i32 %1, ptr %5, align 4
  %8 = load i32, ptr %5, align 4
  call void @llvm.memcpy.p0.p0.i64(ptr align 8 %6, ptr align 8 %2, i64 24, i1 false)
  call void @llvm.memcpy.p0.p0.i64(ptr align 8 %7, ptr align 8 %3, i64 24, i1 false)
  call void @_ZN12ErrorContextC2EiNS_9FaultTypeE10TypeOriginS1_(ptr noundef nonnull align 8 dereferenceable(56) %0, i32 noundef %8, i32 noundef 1, ptr noundef byval(%class.TypeOrigin) align 8 %6, ptr noundef byval(%class.TypeOrigin) align 8 %7)
  ret void
}

; Function Attrs: mustprogress nounwind uwtable
define linkonce_odr hidden noundef zeroext i1 @_ZNK12ThreadShadow21has_pending_exceptionEv(ptr noundef nonnull align 8 dereferenceable(28) %0) #1 comdat align 2 {
  %2 = alloca ptr, align 8
  store ptr %0, ptr %2, align 8
  %3 = load ptr, ptr %2, align 8
  %4 = getelementptr inbounds %class.ThreadShadow, ptr %3, i32 0, i32 1
  %5 = load ptr, ptr %4, align 8
  %6 = icmp ne ptr %5, null
  ret i1 %6
}

; Function Attrs: mustprogress nounwind uwtable
define linkonce_odr hidden ptr @_ZN16VerificationType10bogus_typeEv() #1 comdat align 2 {
  %1 = alloca %class.VerificationType, align 8
  call void @_ZN16VerificationTypeC2Em(ptr noundef nonnull align 8 dereferenceable(8) %1, i64 noundef 4294901761)
  %2 = getelementptr inbounds %class.VerificationType, ptr %1, i32 0, i32 0
  %3 = getelementptr inbounds %union.anon, ptr %2, i32 0, i32 0
  %4 = load ptr, ptr %3, align 8
  ret ptr %4
}

; Function Attrs: mustprogress nounwind uwtable
define linkonce_odr hidden void @_ZN12ErrorContext15bad_local_indexEii(ptr dead_on_unwind noalias writable sret(%class.ErrorContext) align 8 %0, i32 noundef %1, i32 noundef %2) #1 comdat align 2 {
  %4 = alloca i32, align 4
  %5 = alloca i32, align 4
  %6 = alloca %class.TypeOrigin, align 8
  store i32 %1, ptr %4, align 4
  store i32 %2, ptr %5, align 4
  %7 = load i32, ptr %4, align 4
  %8 = load i32, ptr %5, align 4
  call void @_ZN10TypeOrigin9bad_indexEi(ptr dead_on_unwind writable sret(%class.TypeOrigin) align 8 %6, i32 noundef %8)
  call void @_ZN12ErrorContextC2EiNS_9FaultTypeE10TypeOrigin(ptr noundef nonnull align 8 dereferenceable(56) %0, i32 noundef %7, i32 noundef 4, ptr noundef byval(%class.TypeOrigin) align 8 %6)
  ret void
}

; Function Attrs: mustprogress nounwind uwtable
define linkonce_odr hidden noundef ptr @_ZNK13StackMapFrame8verifierEv(ptr noundef nonnull align 8 dereferenceable(48) %0) #1 comdat align 2 {
  %2 = alloca ptr, align 8
  store ptr %0, ptr %2, align 8
  %3 = load ptr, ptr %2, align 8
  %4 = getelementptr inbounds %class.StackMapFrame, ptr %3, i32 0, i32 9
  %5 = load ptr, ptr %4, align 8
  ret ptr %5
}

; Function Attrs: mustprogress nounwind uwtable
define hidden ptr @_ZN13StackMapFrame9get_localEi16VerificationTypeP10JavaThread(ptr noundef nonnull align 8 dereferenceable(48) %0, i32 noundef %1, ptr %2, ptr noundef %3) #1 align 2 {
  %5 = alloca %class.VerificationType, align 8
  %6 = alloca %class.VerificationType, align 8
  %7 = alloca ptr, align 8
  %8 = alloca i32, align 4
  %9 = alloca ptr, align 8
  %10 = alloca %class.ErrorContext, align 8
  %11 = alloca i8, align 1
  %12 = alloca %class.ErrorContext, align 8
  %13 = alloca %class.TypeOrigin, align 8
  %14 = alloca %class.TypeOrigin, align 8
  %15 = alloca %class.VerificationType, align 8
  %16 = getelementptr inbounds %class.VerificationType, ptr %6, i32 0, i32 0
  %17 = getelementptr inbounds %union.anon, ptr %16, i32 0, i32 0
  store ptr %2, ptr %17, align 8
  store ptr %0, ptr %7, align 8
  store i32 %1, ptr %8, align 4
  store ptr %3, ptr %9, align 8
  %18 = load ptr, ptr %7, align 8
  %19 = load i32, ptr %8, align 4
  %20 = getelementptr inbounds %class.StackMapFrame, ptr %18, i32 0, i32 4
  %21 = load i16, ptr %20, align 8
  %22 = zext i16 %21 to i32
  %23 = icmp sge i32 %19, %22
  br i1 %23, label %24, label %32

24:                                               ; preds = %4
  %25 = call noundef ptr @_ZNK13StackMapFrame8verifierEv(ptr noundef nonnull align 8 dereferenceable(48) %18)
  %26 = getelementptr inbounds %class.StackMapFrame, ptr %18, i32 0, i32 0
  %27 = load i32, ptr %26, align 8
  %28 = load i32, ptr %8, align 4
  call void @_ZN12ErrorContext15bad_local_indexEii(ptr dead_on_unwind writable sret(%class.ErrorContext) align 8 %10, i32 noundef %27, i32 noundef %28)
  call void (ptr, ptr, ptr, ...) @_ZN13ClassVerifier12verify_errorE12ErrorContextPKcz(ptr noundef nonnull align 8 dereferenceable(8192) %25, ptr noundef byval(%class.ErrorContext) align 8 %10, ptr noundef @.str.6)
  %29 = call ptr @_ZN16VerificationType10bogus_typeEv()
  %30 = getelementptr inbounds %class.VerificationType, ptr %5, i32 0, i32 0
  %31 = getelementptr inbounds %union.anon, ptr %30, i32 0, i32 0
  store ptr %29, ptr %31, align 8
  br label %77

32:                                               ; preds = %4
  %33 = getelementptr inbounds %class.StackMapFrame, ptr %18, i32 0, i32 7
  %34 = load ptr, ptr %33, align 8
  %35 = load i32, ptr %8, align 4
  %36 = sext i32 %35 to i64
  %37 = getelementptr inbounds %class.VerificationType, ptr %34, i64 %36
  %38 = call noundef ptr @_ZNK13StackMapFrame8verifierEv(ptr noundef nonnull align 8 dereferenceable(48) %18)
  %39 = load ptr, ptr %9, align 8
  %40 = call noundef zeroext i1 @_ZNK16VerificationType18is_assignable_fromERKS_P13ClassVerifierbP10JavaThread(ptr noundef nonnull align 8 dereferenceable(8) %6, ptr noundef nonnull align 8 dereferenceable(8) %37, ptr noundef %38, i1 noundef zeroext false, ptr noundef %39)
  %41 = zext i1 %40 to i8
  store i8 %41, ptr %11, align 1
  %42 = load ptr, ptr %9, align 8
  %43 = call noundef zeroext i1 @_ZNK12ThreadShadow21has_pending_exceptionEv(ptr noundef nonnull align 8 dereferenceable(28) %42)
  br i1 %43, label %44, label %48

44:                                               ; preds = %32
  %45 = call ptr @_ZN16VerificationType10bogus_typeEv()
  %46 = getelementptr inbounds %class.VerificationType, ptr %5, i32 0, i32 0
  %47 = getelementptr inbounds %union.anon, ptr %46, i32 0, i32 0
  store ptr %45, ptr %47, align 8
  br label %77

48:                                               ; preds = %32
  %49 = load i8, ptr %11, align 1
  %50 = trunc i8 %49 to i1
  br i1 %50, label %62, label %51

51:                                               ; preds = %48
  %52 = call noundef ptr @_ZNK13StackMapFrame8verifierEv(ptr noundef nonnull align 8 dereferenceable(48) %18)
  %53 = getelementptr inbounds %class.StackMapFrame, ptr %18, i32 0, i32 0
  %54 = load i32, ptr %53, align 8
  %55 = load i32, ptr %8, align 4
  call void @_ZN10TypeOrigin5localEiP13StackMapFrame(ptr dead_on_unwind writable sret(%class.TypeOrigin) align 8 %13, i32 noundef %55, ptr noundef %18)
  call void @llvm.memcpy.p0.p0.i64(ptr align 8 %15, ptr align 8 %6, i64 8, i1 false)
  %56 = getelementptr inbounds %class.VerificationType, ptr %15, i32 0, i32 0
  %57 = getelementptr inbounds %union.anon, ptr %56, i32 0, i32 0
  %58 = load ptr, ptr %57, align 8
  call void @_ZN10TypeOrigin8implicitE16VerificationType(ptr dead_on_unwind writable sret(%class.TypeOrigin) align 8 %14, ptr %58)
  call void @_ZN12ErrorContext8bad_typeEi10TypeOriginS0_(ptr dead_on_unwind writable sret(%class.ErrorContext) align 8 %12, i32 noundef %54, ptr noundef byval(%class.TypeOrigin) align 8 %13, ptr noundef byval(%class.TypeOrigin) align 8 %14)
  call void (ptr, ptr, ptr, ...) @_ZN13ClassVerifier12verify_errorE12ErrorContextPKcz(ptr noundef nonnull align 8 dereferenceable(8192) %52, ptr noundef byval(%class.ErrorContext) align 8 %12, ptr noundef @.str.7)
  %59 = call ptr @_ZN16VerificationType10bogus_typeEv()
  %60 = getelementptr inbounds %class.VerificationType, ptr %5, i32 0, i32 0
  %61 = getelementptr inbounds %union.anon, ptr %60, i32 0, i32 0
  store ptr %59, ptr %61, align 8
  br label %77

62:                                               ; preds = %48
  %63 = load i32, ptr %8, align 4
  %64 = getelementptr inbounds %class.StackMapFrame, ptr %18, i32 0, i32 1
  %65 = load i32, ptr %64, align 4
  %66 = icmp sge i32 %63, %65
  br i1 %66, label %67, label %71

67:                                               ; preds = %62
  %68 = load i32, ptr %8, align 4
  %69 = add nsw i32 %68, 1
  %70 = getelementptr inbounds %class.StackMapFrame, ptr %18, i32 0, i32 1
  store i32 %69, ptr %70, align 4
  br label %71

71:                                               ; preds = %67, %62
  %72 = getelementptr inbounds %class.StackMapFrame, ptr %18, i32 0, i32 7
  %73 = load ptr, ptr %72, align 8
  %74 = load i32, ptr %8, align 4
  %75 = sext i32 %74 to i64
  %76 = getelementptr inbounds %class.VerificationType, ptr %73, i64 %75
  call void @llvm.memcpy.p0.p0.i64(ptr align 8 %5, ptr align 8 %76, i64 8, i1 false)
  br label %77

77:                                               ; preds = %71, %51, %44, %24
  %78 = getelementptr inbounds %class.VerificationType, ptr %5, i32 0, i32 0
  %79 = getelementptr inbounds %union.anon, ptr %78, i32 0, i32 0
  %80 = load ptr, ptr %79, align 8
  ret ptr %80
}