; Function Attrs: mustprogress nounwind uwtable
define hidden ptr @_ZN13StackMapFrame9get_localEi16VerificationTypeP10JavaThread(ptr noundef nonnull align 8 dereferenceable(48) %0, i32 noundef %1, ptr %2, ptr noundef %3) local_unnamed_addr #0 align 2 {
  %5 = alloca %class.VerificationType, align 8
  %6 = alloca %class.ErrorContext, align 8
  %7 = alloca %class.ErrorContext, align 8
  %8 = alloca %class.TypeOrigin, align 8
  %9 = alloca %class.TypeOrigin, align 8
  store ptr %2, ptr %5, align 8
  %10 = getelementptr inbounds i8, ptr %0, i64 16
  %11 = load i16, ptr %10, align 8
  %12 = zext i16 %11 to i32
  %.not = icmp sgt i32 %12, %1
  br i1 %.not, label %23, label %13

13:                                               ; preds = %4
  %14 = getelementptr inbounds i8, ptr %0, i64 40
  %15 = load ptr, ptr %14, align 8
  %16 = load i32, ptr %0, align 8
  %17 = getelementptr inbounds i8, ptr %6, i64 8
  call void @_ZN10TypeOrigin9bad_indexEi(ptr dead_on_unwind nonnull writable sret(%class.TypeOrigin) align 8 %17, i32 noundef %1) #12
  store i32 %16, ptr %6, align 8, !alias.scope !33
  %18 = getelementptr inbounds i8, ptr %6, i64 4
  store i32 4, ptr %18, align 4, !alias.scope !33
  %19 = getelementptr inbounds i8, ptr %6, i64 32
  store i32 9, ptr %19, align 8, !alias.scope !33
  %20 = getelementptr inbounds i8, ptr %6, i64 36
  store i32 0, ptr %20, align 4, !alias.scope !33
  %21 = getelementptr inbounds i8, ptr %6, i64 40
  store ptr null, ptr %21, align 8, !alias.scope !33
  %22 = getelementptr inbounds i8, ptr %6, i64 48
  store ptr inttoptr (i64 4294901761 to ptr), ptr %22, align 8, !alias.scope !33
  call void (ptr, ptr, ptr, ...) @_ZN13ClassVerifier12verify_errorE12ErrorContextPKcz(ptr noundef nonnull align 8 dereferenceable(8192) %15, ptr noundef nonnull byval(%class.ErrorContext) align 8 %6, ptr noundef nonnull @.str.6) #12
  br label %48

23:                                               ; preds = %4
  %24 = getelementptr inbounds i8, ptr %0, i64 24
  %25 = load ptr, ptr %24, align 8
  %26 = sext i32 %1 to i64
  %27 = getelementptr inbounds %class.VerificationType, ptr %25, i64 %26
  %28 = getelementptr inbounds i8, ptr %0, i64 40
  %29 = load ptr, ptr %28, align 8
  %30 = call noundef zeroext i1 @_ZNK16VerificationType18is_assignable_fromERKS_P13ClassVerifierbP10JavaThread(ptr noundef nonnull align 8 dereferenceable(8) %5, ptr noundef nonnull align 8 dereferenceable(8) %27, ptr noundef %29, i1 noundef zeroext false, ptr noundef %3)
  %31 = getelementptr inbounds i8, ptr %3, i64 8
  %32 = load ptr, ptr %31, align 8
  %.not12 = icmp eq ptr %32, null
  br i1 %.not12, label %33, label %48

33:                                               ; preds = %23
  br i1 %30, label %40, label %34

34:                                               ; preds = %33
  %35 = load ptr, ptr %28, align 8
  %36 = load i32, ptr %0, align 8
  call void @_ZN10TypeOrigin5localEiP13StackMapFrame(ptr dead_on_unwind nonnull writable sret(%class.TypeOrigin) align 8 %8, i32 noundef %1, ptr noundef nonnull %0) #12
  %.sroa.0.0.copyload = load ptr, ptr %5, align 8
  call void @_ZN10TypeOrigin8implicitE16VerificationType(ptr dead_on_unwind nonnull writable sret(%class.TypeOrigin) align 8 %9, ptr %.sroa.0.0.copyload) #12
  %37 = getelementptr inbounds i8, ptr %7, i64 32
  call void @llvm.memcpy.p0.p0.i64(ptr noundef nonnull align 8 dereferenceable(24) %37, ptr noundef nonnull align 8 dereferenceable(24) %9, i64 24, i1 false)
  %38 = getelementptr inbounds i8, ptr %7, i64 8
  call void @llvm.memcpy.p0.p0.i64(ptr noundef nonnull align 8 dereferenceable(24) %38, ptr noundef nonnull align 8 dereferenceable(24) %8, i64 24, i1 false)
  store i32 %36, ptr %7, align 8, !alias.scope !36
  %39 = getelementptr inbounds i8, ptr %7, i64 4
  store i32 1, ptr %39, align 4, !alias.scope !36
  call void (ptr, ptr, ptr, ...) @_ZN13ClassVerifier12verify_errorE12ErrorContextPKcz(ptr noundef nonnull align 8 dereferenceable(8192) %35, ptr noundef nonnull byval(%class.ErrorContext) align 8 %7, ptr noundef nonnull @.str.7) #12
  br label %48

40:                                               ; preds = %33
  %41 = getelementptr inbounds i8, ptr %0, i64 4
  %42 = load i32, ptr %41, align 4
  %.not11 = icmp sgt i32 %42, %1
  br i1 %.not11, label %45, label %43

43:                                               ; preds = %40
  %44 = add nsw i32 %1, 1
  store i32 %44, ptr %41, align 4
  br label %45

45:                                               ; preds = %43, %40
  %46 = load ptr, ptr %24, align 8
  %47 = getelementptr inbounds %class.VerificationType, ptr %46, i64 %26
  %.sroa.010.0.copyload = load ptr, ptr %47, align 8
  br label %48

48:                                               ; preds = %23, %45, %34, %13
  %.sroa.010.0 = phi ptr [ inttoptr (i64 4294901761 to ptr), %13 ], [ %.sroa.010.0.copyload, %45 ], [ inttoptr (i64 4294901761 to ptr), %34 ], [ inttoptr (i64 4294901761 to ptr), %23 ]
  ret ptr %.sroa.010.0
}